; ModuleID = '17/273.c'
source_filename = "17/273.c"
target datalayout = "e-m:e-p270:32:32-p271:32:32-p272:64:64-i64:64-f80:128-n8:16:32:64-S128"
target triple = "x86_64-pc-linux-gnu"

@.str = private unnamed_addr constant [3 x i8] c"%s\00", align 1
@.str.1 = private unnamed_addr constant [4 x i8] c"%s\0A\00", align 1

; Function Attrs: noinline nounwind uwtable
define dso_local i32 @main() #0 {
  %1 = alloca i32, align 4
  %2 = alloca [200 x i8], align 16
  store i32 0, i32* %1, align 4
  br label %3

3:                                                ; preds = %7, %0
  %4 = getelementptr inbounds [200 x i8], [200 x i8]* %2, i64 0, i64 0
  %5 = call i32 (i8*, ...) @__isoc99_scanf(i8* getelementptr inbounds ([3 x i8], [3 x i8]* @.str, i64 0, i64 0), i8* %4)
  %6 = icmp ne i32 %5, -1
  br i1 %6, label %7, label %11

7:                                                ; preds = %3
  %8 = getelementptr inbounds [200 x i8], [200 x i8]* %2, i64 0, i64 0
  call void @function(i8* %8)
  %9 = getelementptr inbounds [200 x i8], [200 x i8]* %2, i64 0, i64 0
  %10 = call i32 (i8*, ...) @printf(i8* getelementptr inbounds ([4 x i8], [4 x i8]* @.str.1, i64 0, i64 0), i8* %9)
  br label %3

11:                                               ; preds = %3
  ret i32 0
}

declare dso_local i32 @__isoc99_scanf(i8*, ...) #1

; Function Attrs: noinline nounwind uwtable
define dso_local void @function(i8* %0) #0 {
  %2 = alloca i8*, align 8
  %3 = alloca [200 x i32], align 16
  %4 = alloca [200 x i32], align 16
  %5 = alloca i32, align 4
  %6 = alloca i32, align 4
  %7 = alloca i32, align 4
  %8 = alloca i32, align 4
  %9 = alloca i32, align 4
  %10 = alloca i32, align 4
  %11 = alloca i32, align 4
  store i8* %0, i8** %2, align 8
  store i32 0, i32* %5, align 4
  store i32 0, i32* %6, align 4
  store i32 0, i32* %5, align 4
  store i32 0, i32* %6, align 4
  %12 = load i8*, i8** %2, align 8
  %13 = call i32 (i8*, ...) @printf(i8* getelementptr inbounds ([4 x i8], [4 x i8]* @.str.1, i64 0, i64 0), i8* %12)
  %14 = load i8*, i8** %2, align 8
  %15 = call i64 @strlen(i8* %14) #3
  %16 = sub i64 %15, 1
  %17 = trunc i64 %16 to i32
  store i32 %17, i32* %11, align 4
  store i32 0, i32* %10, align 4
  br label %18

18:                                               ; preds = %59, %1
  %19 = load i32, i32* %10, align 4
  %20 = load i32, i32* %11, align 4
  %21 = icmp sle i32 %19, %20
  br i1 %21, label %22, label %62

22:                                               ; preds = %18
  %23 = load i8*, i8** %2, align 8
  %24 = load i32, i32* %10, align 4
  %25 = sext i32 %24 to i64
  %26 = getelementptr inbounds i8, i8* %23, i64 %25
  %27 = load i8, i8* %26, align 1
  %28 = sext i8 %27 to i32
  %29 = icmp eq i32 %28, 40
  br i1 %29, label %30, label %37

30:                                               ; preds = %22
  %31 = load i32, i32* %10, align 4
  %32 = load i32, i32* %5, align 4
  %33 = sext i32 %32 to i64
  %34 = getelementptr inbounds [200 x i32], [200 x i32]* %3, i64 0, i64 %33
  store i32 %31, i32* %34, align 4
  %35 = load i32, i32* %5, align 4
  %36 = add nsw i32 %35, 1
  store i32 %36, i32* %5, align 4
  br label %58

37:                                               ; preds = %22
  %38 = load i8*, i8** %2, align 8
  %39 = load i32, i32* %10, align 4
  %40 = sext i32 %39 to i64
  %41 = getelementptr inbounds i8, i8* %38, i64 %40
  %42 = load i8, i8* %41, align 1
  %43 = sext i8 %42 to i32
  %44 = icmp eq i32 %43, 41
  br i1 %44, label %45, label %52

45:                                               ; preds = %37
  %46 = load i32, i32* %10, align 4
  %47 = load i32, i32* %6, align 4
  %48 = sext i32 %47 to i64
  %49 = getelementptr inbounds [200 x i32], [200 x i32]* %4, i64 0, i64 %48
  store i32 %46, i32* %49, align 4
  %50 = load i32, i32* %6, align 4
  %51 = add nsw i32 %50, 1
  store i32 %51, i32* %6, align 4
  br label %57

52:                                               ; preds = %37
  %53 = load i8*, i8** %2, align 8
  %54 = load i32, i32* %10, align 4
  %55 = sext i32 %54 to i64
  %56 = getelementptr inbounds i8, i8* %53, i64 %55
  store i8 32, i8* %56, align 1
  br label %57

57:                                               ; preds = %52, %45
  br label %58

58:                                               ; preds = %57, %30
  br label %59

59:                                               ; preds = %58
  %60 = load i32, i32* %10, align 4
  %61 = add nsw i32 %60, 1
  store i32 %61, i32* %10, align 4
  br label %18

62:                                               ; preds = %18
  %63 = load i32, i32* %5, align 4
  %64 = sub nsw i32 %63, 1
  store i32 %64, i32* %10, align 4
  br label %65

65:                                               ; preds = %126, %62
  %66 = load i32, i32* %10, align 4
  %67 = icmp sge i32 %66, 0
  br i1 %67, label %68, label %129

68:                                               ; preds = %65
  store i32 0, i32* %9, align 4
  br label %69

69:                                               ; preds = %109, %68
  %70 = load i32, i32* %9, align 4
  %71 = load i32, i32* %6, align 4
  %72 = icmp slt i32 %70, %71
  br i1 %72, label %73, label %112

73:                                               ; preds = %69
  %74 = load i32, i32* %10, align 4
  %75 = sext i32 %74 to i64
  %76 = getelementptr inbounds [200 x i32], [200 x i32]* %3, i64 0, i64 %75
  %77 = load i32, i32* %76, align 4
  store i32 %77, i32* %7, align 4
  %78 = load i32, i32* %9, align 4
  %79 = sext i32 %78 to i64
  %80 = getelementptr inbounds [200 x i32], [200 x i32]* %4, i64 0, i64 %79
  %81 = load i32, i32* %80, align 4
  store i32 %81, i32* %8, align 4
  %82 = load i32, i32* %10, align 4
  %83 = sext i32 %82 to i64
  %84 = getelementptr inbounds [200 x i32], [200 x i32]* %3, i64 0, i64 %83
  %85 = load i32, i32* %84, align 4
  %86 = load i32, i32* %9, align 4
  %87 = sext i32 %86 to i64
  %88 = getelementptr inbounds [200 x i32], [200 x i32]* %4, i64 0, i64 %87
  %89 = load i32, i32* %88, align 4
  %90 = icmp slt i32 %85, %89
  br i1 %90, label %91, label %108

91:                                               ; preds = %73
  %92 = load i8*, i8** %2, align 8
  %93 = load i32, i32* %8, align 4
  %94 = sext i32 %93 to i64
  %95 = getelementptr inbounds i8, i8* %92, i64 %94
  %96 = load i8, i8* %95, align 1
  %97 = sext i8 %96 to i32
  %98 = icmp ne i32 %97, 32
  br i1 %98, label %99, label %108

99:                                               ; preds = %91
  %100 = load i8*, i8** %2, align 8
  %101 = load i32, i32* %7, align 4
  %102 = sext i32 %101 to i64
  %103 = getelementptr inbounds i8, i8* %100, i64 %102
  store i8 32, i8* %103, align 1
  %104 = load i8*, i8** %2, align 8
  %105 = load i32, i32* %8, align 4
  %106 = sext i32 %105 to i64
  %107 = getelementptr inbounds i8, i8* %104, i64 %106
  store i8 32, i8* %107, align 1
  br label %112

108:                                              ; preds = %91, %73
  br label %109

109:                                              ; preds = %108
  %110 = load i32, i32* %9, align 4
  %111 = add nsw i32 %110, 1
  store i32 %111, i32* %9, align 4
  br label %69

112:                                              ; preds = %99, %69
  %113 = load i32, i32* %9, align 4
  %114 = load i32, i32* %6, align 4
  %115 = icmp eq i32 %113, %114
  br i1 %115, label %116, label %125

116:                                              ; preds = %112
  %117 = load i32, i32* %10, align 4
  %118 = sext i32 %117 to i64
  %119 = getelementptr inbounds [200 x i32], [200 x i32]* %3, i64 0, i64 %118
  %120 = load i32, i32* %119, align 4
  store i32 %120, i32* %7, align 4
  %121 = load i8*, i8** %2, align 8
  %122 = load i32, i32* %7, align 4
  %123 = sext i32 %122 to i64
  %124 = getelementptr inbounds i8, i8* %121, i64 %123
  store i8 36, i8* %124, align 1
  br label %125

125:                                              ; preds = %116, %112
  br label %126

126:                                              ; preds = %125
  %127 = load i32, i32* %10, align 4
  %128 = add nsw i32 %127, -1
  store i32 %128, i32* %10, align 4
  br label %65

129:                                              ; preds = %65
  store i32 0, i32* %9, align 4
  br label %130

130:                                              ; preds = %152, %129
  %131 = load i32, i32* %9, align 4
  %132 = load i32, i32* %6, align 4
  %133 = icmp slt i32 %131, %132
  br i1 %133, label %134, label %155

134:                                              ; preds = %130
  %135 = load i32, i32* %9, align 4
  %136 = sext i32 %135 to i64
  %137 = getelementptr inbounds [200 x i32], [200 x i32]* %4, i64 0, i64 %136
  %138 = load i32, i32* %137, align 4
  store i32 %138, i32* %8, align 4
  %139 = load i8*, i8** %2, align 8
  %140 = load i32, i32* %8, align 4
  %141 = sext i32 %140 to i64
  %142 = getelementptr inbounds i8, i8* %139, i64 %141
  %143 = load i8, i8* %142, align 1
  %144 = sext i8 %143 to i32
  %145 = icmp eq i32 %144, 41
  br i1 %145, label %146, label %151

146:                                              ; preds = %134
  %147 = load i8*, i8** %2, align 8
  %148 = load i32, i32* %8, align 4
  %149 = sext i32 %148 to i64
  %150 = getelementptr inbounds i8, i8* %147, i64 %149
  store i8 63, i8* %150, align 1
  br label %151

151:                                              ; preds = %146, %134
  br label %152

152:                                              ; preds = %151
  %153 = load i32, i32* %9, align 4
  %154 = add nsw i32 %153, 1
  store i32 %154, i32* %9, align 4
  br label %130

155:                                              ; preds = %130
  ret void
}

declare dso_local i32 @printf(i8*, ...) #1

; Function Attrs: nounwind readonly
declare dso_local i64 @strlen(i8*) #2


!llvm.module.flags = !{!0}
!llvm.ident = !{!1}

!0 = !{i32 1, !"wchar_size", i32 4}
!1 = !{!"clang version 10.0.0-4ubuntu1 "}
